target datalayout = "e-m:e-p270:32:32-p271:32:32-p272:64:64-i64:64-i128:128-f80:128-n8:16:32:64-S128"
target triple = "x86_64-pc-linux-gnu"

%struct.CreateTrigStmt = type { i32, i8, i8, ptr, ptr, ptr, ptr, i8, i16, i16, ptr, ptr, ptr, i8, i8, ptr }

; Function Attrs: nounwind uwtable
define internal zeroext i1 @_equalCreateTrigStmt(ptr noundef %0, ptr noundef %1) #0 {
  %3 = alloca i1, align 1
  %4 = alloca ptr, align 8
  %5 = alloca ptr, align 8
  store ptr %0, ptr %4, align 8
  store ptr %1, ptr %5, align 8
  br label %6

6:                                                ; preds = %2
  %7 = load ptr, ptr %4, align 8
  %8 = getelementptr inbounds nuw %struct.CreateTrigStmt, ptr %7, i32 0, i32 1
  %9 = load i8, ptr %8, align 4, !range !4, !noundef !5
  %10 = trunc i8 %9 to i1
  %11 = zext i1 %10 to i32
  %12 = load ptr, ptr %5, align 8
  %13 = getelementptr inbounds nuw %struct.CreateTrigStmt, ptr %12, i32 0, i32 1
  %14 = load i8, ptr %13, align 4, !range !4, !noundef !5
  %15 = trunc i8 %14 to i1
  %16 = zext i1 %15 to i32
  %17 = icmp ne i32 %11, %16
  br i1 %17, label %18, label %19

18:                                               ; preds = %6
  store i1 false, ptr %3, align 1
  br label %214

19:                                               ; preds = %6
  br label %20

20:                                               ; preds = %19
  br label %21

21:                                               ; preds = %20
  %22 = load ptr, ptr %4, align 8
  %23 = getelementptr inbounds nuw %struct.CreateTrigStmt, ptr %22, i32 0, i32 2
  %24 = load i8, ptr %23, align 1, !range !4, !noundef !5
  %25 = trunc i8 %24 to i1
  %26 = zext i1 %25 to i32
  %27 = load ptr, ptr %5, align 8
  %28 = getelementptr inbounds nuw %struct.CreateTrigStmt, ptr %27, i32 0, i32 2
  %29 = load i8, ptr %28, align 1, !range !4, !noundef !5
  %30 = trunc i8 %29 to i1
  %31 = zext i1 %30 to i32
  %32 = icmp ne i32 %26, %31
  br i1 %32, label %33, label %34

33:                                               ; preds = %21
  store i1 false, ptr %3, align 1
  br label %214

34:                                               ; preds = %21
  br label %35

35:                                               ; preds = %34
  br label %36

36:                                               ; preds = %35
  %37 = load ptr, ptr %4, align 8
  %38 = getelementptr inbounds nuw %struct.CreateTrigStmt, ptr %37, i32 0, i32 3
  %39 = load ptr, ptr %38, align 8
  %40 = icmp ne ptr %39, null
  br i1 %40, label %41, label %55

41:                                               ; preds = %36
  %42 = load ptr, ptr %5, align 8
  %43 = getelementptr inbounds nuw %struct.CreateTrigStmt, ptr %42, i32 0, i32 3
  %44 = load ptr, ptr %43, align 8
  %45 = icmp ne ptr %44, null
  br i1 %45, label %46, label %55

46:                                               ; preds = %41
  %47 = load ptr, ptr %4, align 8
  %48 = getelementptr inbounds nuw %struct.CreateTrigStmt, ptr %47, i32 0, i32 3
  %49 = load ptr, ptr %48, align 8
  %50 = load ptr, ptr %5, align 8
  %51 = getelementptr inbounds nuw %struct.CreateTrigStmt, ptr %50, i32 0, i32 3
  %52 = load ptr, ptr %51, align 8
  %53 = call i32 @strcmp(ptr noundef %49, ptr noundef %52) #8
  %54 = icmp eq i32 %53, 0
  br i1 %54, label %64, label %63

55:                                               ; preds = %41, %36
  %56 = load ptr, ptr %4, align 8
  %57 = getelementptr inbounds nuw %struct.CreateTrigStmt, ptr %56, i32 0, i32 3
  %58 = load ptr, ptr %57, align 8
  %59 = load ptr, ptr %5, align 8
  %60 = getelementptr inbounds nuw %struct.CreateTrigStmt, ptr %59, i32 0, i32 3
  %61 = load ptr, ptr %60, align 8
  %62 = icmp eq ptr %58, %61
  br i1 %62, label %64, label %63

63:                                               ; preds = %55, %46
  store i1 false, ptr %3, align 1
  br label %214

64:                                               ; preds = %55, %46
  br label %65

65:                                               ; preds = %64
  br label %66

66:                                               ; preds = %65
  %67 = load ptr, ptr %4, align 8
  %68 = getelementptr inbounds nuw %struct.CreateTrigStmt, ptr %67, i32 0, i32 4
  %69 = load ptr, ptr %68, align 8
  %70 = load ptr, ptr %5, align 8
  %71 = getelementptr inbounds nuw %struct.CreateTrigStmt, ptr %70, i32 0, i32 4
  %72 = load ptr, ptr %71, align 8
  %73 = call zeroext i1 @equal(ptr noundef %69, ptr noundef %72)
  br i1 %73, label %75, label %74

74:                                               ; preds = %66
  store i1 false, ptr %3, align 1
  br label %214

75:                                               ; preds = %66
  br label %76

76:                                               ; preds = %75
  br label %77

77:                                               ; preds = %76
  %78 = load ptr, ptr %4, align 8
  %79 = getelementptr inbounds nuw %struct.CreateTrigStmt, ptr %78, i32 0, i32 5
  %80 = load ptr, ptr %79, align 8
  %81 = load ptr, ptr %5, align 8
  %82 = getelementptr inbounds nuw %struct.CreateTrigStmt, ptr %81, i32 0, i32 5
  %83 = load ptr, ptr %82, align 8
  %84 = call zeroext i1 @equal(ptr noundef %80, ptr noundef %83)
  br i1 %84, label %86, label %85

85:                                               ; preds = %77
  store i1 false, ptr %3, align 1
  br label %214

86:                                               ; preds = %77
  br label %87

87:                                               ; preds = %86
  br label %88

88:                                               ; preds = %87
  %89 = load ptr, ptr %4, align 8
  %90 = getelementptr inbounds nuw %struct.CreateTrigStmt, ptr %89, i32 0, i32 6
  %91 = load ptr, ptr %90, align 8
  %92 = load ptr, ptr %5, align 8
  %93 = getelementptr inbounds nuw %struct.CreateTrigStmt, ptr %92, i32 0, i32 6
  %94 = load ptr, ptr %93, align 8
  %95 = call zeroext i1 @equal(ptr noundef %91, ptr noundef %94)
  br i1 %95, label %97, label %96

96:                                               ; preds = %88
  store i1 false, ptr %3, align 1
  br label %214

97:                                               ; preds = %88
  br label %98

98:                                               ; preds = %97
  br label %99

99:                                               ; preds = %98
  %100 = load ptr, ptr %4, align 8
  %101 = getelementptr inbounds nuw %struct.CreateTrigStmt, ptr %100, i32 0, i32 7
  %102 = load i8, ptr %101, align 8, !range !4, !noundef !5
  %103 = trunc i8 %102 to i1
  %104 = zext i1 %103 to i32
  %105 = load ptr, ptr %5, align 8
  %106 = getelementptr inbounds nuw %struct.CreateTrigStmt, ptr %105, i32 0, i32 7
  %107 = load i8, ptr %106, align 8, !range !4, !noundef !5
  %108 = trunc i8 %107 to i1
  %109 = zext i1 %108 to i32
  %110 = icmp ne i32 %104, %109
  br i1 %110, label %111, label %112

111:                                              ; preds = %99
  store i1 false, ptr %3, align 1
  br label %214

112:                                              ; preds = %99
  br label %113

113:                                              ; preds = %112
  br label %114

114:                                              ; preds = %113
  %115 = load ptr, ptr %4, align 8
  %116 = getelementptr inbounds nuw %struct.CreateTrigStmt, ptr %115, i32 0, i32 8
  %117 = load i16, ptr %116, align 2
  %118 = sext i16 %117 to i32
  %119 = load ptr, ptr %5, align 8
  %120 = getelementptr inbounds nuw %struct.CreateTrigStmt, ptr %119, i32 0, i32 8
  %121 = load i16, ptr %120, align 2
  %122 = sext i16 %121 to i32
  %123 = icmp ne i32 %118, %122
  br i1 %123, label %124, label %125

124:                                              ; preds = %114
  store i1 false, ptr %3, align 1
  br label %214

125:                                              ; preds = %114
  br label %126

126:                                              ; preds = %125
  br label %127

127:                                              ; preds = %126
  %128 = load ptr, ptr %4, align 8
  %129 = getelementptr inbounds nuw %struct.CreateTrigStmt, ptr %128, i32 0, i32 9
  %130 = load i16, ptr %129, align 4
  %131 = sext i16 %130 to i32
  %132 = load ptr, ptr %5, align 8
  %133 = getelementptr inbounds nuw %struct.CreateTrigStmt, ptr %132, i32 0, i32 9
  %134 = load i16, ptr %133, align 4
  %135 = sext i16 %134 to i32
  %136 = icmp ne i32 %131, %135
  br i1 %136, label %137, label %138

137:                                              ; preds = %127
  store i1 false, ptr %3, align 1
  br label %214

138:                                              ; preds = %127
  br label %139

139:                                              ; preds = %138
  br label %140

140:                                              ; preds = %139
  %141 = load ptr, ptr %4, align 8
  %142 = getelementptr inbounds nuw %struct.CreateTrigStmt, ptr %141, i32 0, i32 10
  %143 = load ptr, ptr %142, align 8
  %144 = load ptr, ptr %5, align 8
  %145 = getelementptr inbounds nuw %struct.CreateTrigStmt, ptr %144, i32 0, i32 10
  %146 = load ptr, ptr %145, align 8
  %147 = call zeroext i1 @equal(ptr noundef %143, ptr noundef %146)
  br i1 %147, label %149, label %148

148:                                              ; preds = %140
  store i1 false, ptr %3, align 1
  br label %214

149:                                              ; preds = %140
  br label %150

150:                                              ; preds = %149
  br label %151

151:                                              ; preds = %150
  %152 = load ptr, ptr %4, align 8
  %153 = getelementptr inbounds nuw %struct.CreateTrigStmt, ptr %152, i32 0, i32 11
  %154 = load ptr, ptr %153, align 8
  %155 = load ptr, ptr %5, align 8
  %156 = getelementptr inbounds nuw %struct.CreateTrigStmt, ptr %155, i32 0, i32 11
  %157 = load ptr, ptr %156, align 8
  %158 = call zeroext i1 @equal(ptr noundef %154, ptr noundef %157)
  br i1 %158, label %160, label %159

159:                                              ; preds = %151
  store i1 false, ptr %3, align 1
  br label %214

160:                                              ; preds = %151
  br label %161

161:                                              ; preds = %160
  br label %162

162:                                              ; preds = %161
  %163 = load ptr, ptr %4, align 8
  %164 = getelementptr inbounds nuw %struct.CreateTrigStmt, ptr %163, i32 0, i32 12
  %165 = load ptr, ptr %164, align 8
  %166 = load ptr, ptr %5, align 8
  %167 = getelementptr inbounds nuw %struct.CreateTrigStmt, ptr %166, i32 0, i32 12
  %168 = load ptr, ptr %167, align 8
  %169 = call zeroext i1 @equal(ptr noundef %165, ptr noundef %168)
  br i1 %169, label %171, label %170

170:                                              ; preds = %162
  store i1 false, ptr %3, align 1
  br label %214

171:                                              ; preds = %162
  br label %172

172:                                              ; preds = %171
  br label %173

173:                                              ; preds = %172
  %174 = load ptr, ptr %4, align 8
  %175 = getelementptr inbounds nuw %struct.CreateTrigStmt, ptr %174, i32 0, i32 13
  %176 = load i8, ptr %175, align 8, !range !4, !noundef !5
  %177 = trunc i8 %176 to i1
  %178 = zext i1 %177 to i32
  %179 = load ptr, ptr %5, align 8
  %180 = getelementptr inbounds nuw %struct.CreateTrigStmt, ptr %179, i32 0, i32 13
  %181 = load i8, ptr %180, align 8, !range !4, !noundef !5
  %182 = trunc i8 %181 to i1
  %183 = zext i1 %182 to i32
  %184 = icmp ne i32 %178, %183
  br i1 %184, label %185, label %186

185:                                              ; preds = %173
  store i1 false, ptr %3, align 1
  br label %214

186:                                              ; preds = %173
  br label %187

187:                                              ; preds = %186
  br label %188

188:                                              ; preds = %187
  %189 = load ptr, ptr %4, align 8
  %190 = getelementptr inbounds nuw %struct.CreateTrigStmt, ptr %189, i32 0, i32 14
  %191 = load i8, ptr %190, align 1, !range !4, !noundef !5
  %192 = trunc i8 %191 to i1
  %193 = zext i1 %192 to i32
  %194 = load ptr, ptr %5, align 8
  %195 = getelementptr inbounds nuw %struct.CreateTrigStmt, ptr %194, i32 0, i32 14
  %196 = load i8, ptr %195, align 1, !range !4, !noundef !5
  %197 = trunc i8 %196 to i1
  %198 = zext i1 %197 to i32
  %199 = icmp ne i32 %193, %198
  br i1 %199, label %200, label %201

200:                                              ; preds = %188
  store i1 false, ptr %3, align 1
  br label %214

201:                                              ; preds = %188
  br label %202

202:                                              ; preds = %201
  br label %203

203:                                              ; preds = %202
  %204 = load ptr, ptr %4, align 8
  %205 = getelementptr inbounds nuw %struct.CreateTrigStmt, ptr %204, i32 0, i32 15
  %206 = load ptr, ptr %205, align 8
  %207 = load ptr, ptr %5, align 8
  %208 = getelementptr inbounds nuw %struct.CreateTrigStmt, ptr %207, i32 0, i32 15
  %209 = load ptr, ptr %208, align 8
  %210 = call zeroext i1 @equal(ptr noundef %206, ptr noundef %209)
  br i1 %210, label %212, label %211

211:                                              ; preds = %203
  store i1 false, ptr %3, align 1
  br label %214

212:                                              ; preds = %203
  br label %213

213:                                              ; preds = %212
  store i1 true, ptr %3, align 1
  br label %214

214:                                              ; preds = %213, %211, %200, %185, %170, %159, %148, %137, %124, %111, %96, %85, %74, %63, %33, %18
  %215 = load i1, ptr %3, align 1
  ret i1 %215
}