; Function Attrs: nounwind uwtable
define internal fastcc zeroext i1 @_equalCreateTrigStmt(ptr noundef nonnull readonly captures(none) %0, ptr noundef nonnull readonly captures(none) %1) unnamed_addr #0 {
  %3 = getelementptr inbounds nuw i8, ptr %0, i64 4
  %4 = load i8, ptr %3, align 4, !range !4, !noundef !5
  %5 = getelementptr inbounds nuw i8, ptr %1, i64 4
  %6 = load i8, ptr %5, align 4, !range !4, !noundef !5
  %.not = icmp eq i8 %4, %6
  br i1 %.not, label %7, label %.thread

7:                                                ; preds = %2
  %8 = getelementptr inbounds nuw i8, ptr %0, i64 5
  %9 = load i8, ptr %8, align 1, !range !4, !noundef !5
  %10 = getelementptr inbounds nuw i8, ptr %1, i64 5
  %11 = load i8, ptr %10, align 1, !range !4, !noundef !5
  %.not37 = icmp eq i8 %9, %11
  br i1 %.not37, label %12, label %.thread

12:                                               ; preds = %7
  %13 = getelementptr inbounds nuw i8, ptr %0, i64 8
  %14 = load ptr, ptr %13, align 8
  %.not38 = icmp eq ptr %14, null
  %.phi.trans.insert = getelementptr inbounds nuw i8, ptr %1, i64 8
  %.pre = load ptr, ptr %.phi.trans.insert, align 8
  br i1 %.not38, label %19, label %15

15:                                               ; preds = %12
  %.not39 = icmp eq ptr %.pre, null
  br i1 %.not39, label %.thread, label %16

16:                                               ; preds = %15
  %17 = tail call i32 @strcmp(ptr noundef nonnull dereferenceable(1) %14, ptr noundef nonnull dereferenceable(1) %.pre) #11
  %18 = icmp eq i32 %17, 0
  br i1 %18, label %21, label %.thread

19:                                               ; preds = %12
  %20 = icmp eq ptr %14, %.pre
  br i1 %20, label %21, label %.thread

21:                                               ; preds = %19, %16
  %22 = getelementptr inbounds nuw i8, ptr %0, i64 16
  %23 = load ptr, ptr %22, align 8
  %24 = getelementptr inbounds nuw i8, ptr %1, i64 16
  %25 = load ptr, ptr %24, align 8
  %26 = tail call zeroext i1 @equal(ptr noundef %23, ptr noundef %25)
  br i1 %26, label %27, label %.thread

27:                                               ; preds = %21
  %28 = getelementptr inbounds nuw i8, ptr %0, i64 24
  %29 = load ptr, ptr %28, align 8
  %30 = getelementptr inbounds nuw i8, ptr %1, i64 24
  %31 = load ptr, ptr %30, align 8
  %32 = tail call zeroext i1 @equal(ptr noundef %29, ptr noundef %31)
  br i1 %32, label %33, label %.thread

33:                                               ; preds = %27
  %34 = getelementptr inbounds nuw i8, ptr %0, i64 32
  %35 = load ptr, ptr %34, align 8
  %36 = getelementptr inbounds nuw i8, ptr %1, i64 32
  %37 = load ptr, ptr %36, align 8
  %38 = tail call zeroext i1 @equal(ptr noundef %35, ptr noundef %37)
  br i1 %38, label %39, label %.thread

39:                                               ; preds = %33
  %40 = getelementptr inbounds nuw i8, ptr %0, i64 40
  %41 = load i8, ptr %40, align 8, !range !4, !noundef !5
  %42 = getelementptr inbounds nuw i8, ptr %1, i64 40
  %43 = load i8, ptr %42, align 8, !range !4, !noundef !5
  %.not40 = icmp eq i8 %41, %43
  br i1 %.not40, label %44, label %.thread

44:                                               ; preds = %39
  %45 = getelementptr inbounds nuw i8, ptr %0, i64 42
  %46 = load i16, ptr %45, align 2
  %47 = getelementptr inbounds nuw i8, ptr %1, i64 42
  %48 = load i16, ptr %47, align 2
  %.not41 = icmp eq i16 %46, %48
  br i1 %.not41, label %49, label %.thread

49:                                               ; preds = %44
  %50 = getelementptr inbounds nuw i8, ptr %0, i64 44
  %51 = load i16, ptr %50, align 4
  %52 = getelementptr inbounds nuw i8, ptr %1, i64 44
  %53 = load i16, ptr %52, align 4
  %.not42 = icmp eq i16 %51, %53
  br i1 %.not42, label %54, label %.thread

54:                                               ; preds = %49
  %55 = getelementptr inbounds nuw i8, ptr %0, i64 48
  %56 = load ptr, ptr %55, align 8
  %57 = getelementptr inbounds nuw i8, ptr %1, i64 48
  %58 = load ptr, ptr %57, align 8
  %59 = tail call zeroext i1 @equal(ptr noundef %56, ptr noundef %58)
  br i1 %59, label %60, label %.thread

60:                                               ; preds = %54
  %61 = getelementptr inbounds nuw i8, ptr %0, i64 56
  %62 = load ptr, ptr %61, align 8
  %63 = getelementptr inbounds nuw i8, ptr %1, i64 56
  %64 = load ptr, ptr %63, align 8
  %65 = tail call zeroext i1 @equal(ptr noundef %62, ptr noundef %64)
  br i1 %65, label %66, label %.thread

66:                                               ; preds = %60
  %67 = getelementptr inbounds nuw i8, ptr %0, i64 64
  %68 = load ptr, ptr %67, align 8
  %69 = getelementptr inbounds nuw i8, ptr %1, i64 64
  %70 = load ptr, ptr %69, align 8
  %71 = tail call zeroext i1 @equal(ptr noundef %68, ptr noundef %70)
  br i1 %71, label %72, label %.thread

72:                                               ; preds = %66
  %73 = getelementptr inbounds nuw i8, ptr %0, i64 72
  %74 = load i8, ptr %73, align 8, !range !4, !noundef !5
  %75 = getelementptr inbounds nuw i8, ptr %1, i64 72
  %76 = load i8, ptr %75, align 8, !range !4, !noundef !5
  %.not43 = icmp eq i8 %74, %76
  br i1 %.not43, label %77, label %.thread

77:                                               ; preds = %72
  %78 = getelementptr inbounds nuw i8, ptr %0, i64 73
  %79 = load i8, ptr %78, align 1, !range !4, !noundef !5
  %80 = getelementptr inbounds nuw i8, ptr %1, i64 73
  %81 = load i8, ptr %80, align 1, !range !4, !noundef !5
  %.not44 = icmp eq i8 %79, %81
  br i1 %.not44, label %82, label %.thread

82:                                               ; preds = %77
  %83 = getelementptr inbounds nuw i8, ptr %0, i64 80
  %84 = load ptr, ptr %83, align 8
  %85 = getelementptr inbounds nuw i8, ptr %1, i64 80
  %86 = load ptr, ptr %85, align 8
  %87 = tail call zeroext i1 @equal(ptr noundef %84, ptr noundef %86)
  br label %.thread

.thread:                                          ; preds = %15, %82, %77, %72, %66, %60, %54, %49, %44, %39, %33, %27, %21, %16, %19, %7, %2
  %.0 = phi i1 [ false, %2 ], [ false, %7 ], [ false, %19 ], [ false, %16 ], [ false, %21 ], [ false, %27 ], [ false, %33 ], [ false, %39 ], [ false, %44 ], [ false, %49 ], [ false, %54 ], [ false, %60 ], [ false, %66 ], [ false, %72 ], [ false, %77 ], [ %87, %82 ], [ false, %15 ]
  ret i1 %.0
}